target datalayout = "e-m:e-p270:32:32-p271:32:32-p272:64:64-i64:64-i128:128-f80:128-n8:16:32:64-S128"
target triple = "x86_64-pc-linux-gnu"

%struct.FFTextReader = type { i32, ptr, [8 x i8], i32, i32, %struct.FFIOContext }
%struct.FFIOContext = type { %struct.AVIOContext, ptr, i32, i32, i64, i64, i64, i64, i32, i32, i32, i64 }
%struct.AVIOContext = type { ptr, ptr, i32, ptr, ptr, ptr, ptr, ptr, ptr, i64, i32, i32, i32, i32, i32, i64, ptr, ptr, ptr, ptr, i32, i32, ptr, ptr, ptr, i32, ptr, i64, i64 }

; Function Attrs: nounwind uwtable
define i32 @ff_subtitles_read_chunk(ptr noundef %0, ptr noundef %1) #0 {
  %3 = alloca ptr, align 8
  %4 = alloca ptr, align 8
  %5 = alloca %struct.FFTextReader, align 8
  store ptr %0, ptr %3, align 8, !tbaa !8
  store ptr %1, ptr %4, align 8, !tbaa !46
  call void @llvm.lifetime.start.p0(i64 312, ptr %5) #9
  %6 = getelementptr inbounds nuw %struct.FFTextReader, ptr %5, i32 0, i32 4
  store i32 0, ptr %6, align 4, !tbaa !18
  %7 = getelementptr inbounds nuw %struct.FFTextReader, ptr %5, i32 0, i32 3
  store i32 0, ptr %7, align 8, !tbaa !19
  %8 = getelementptr inbounds nuw %struct.FFTextReader, ptr %5, i32 0, i32 0
  store i32 0, ptr %8, align 8, !tbaa !20
  %9 = load ptr, ptr %3, align 8, !tbaa !8
  %10 = getelementptr inbounds nuw %struct.FFTextReader, ptr %5, i32 0, i32 1
  store ptr %9, ptr %10, align 8, !tbaa !10
  %11 = load ptr, ptr %4, align 8, !tbaa !46
  %12 = call i32 @ff_subtitles_read_text_chunk(ptr noundef %5, ptr noundef %11)
  call void @llvm.lifetime.end.p0(i64 312, ptr %5) #9
  ret i32 %12
}