; Function Attrs: nounwind uwtable
define range(i32 -12, 1) i32 @ff_subtitles_read_chunk(ptr noundef %0, ptr noundef %1) local_unnamed_addr #0 {
  %3 = alloca %struct.FFTextReader, align 8
  call void @llvm.lifetime.start.p0(i64 312, ptr nonnull %3) #11
  %4 = getelementptr inbounds nuw i8, ptr %3, i64 28
  store i32 0, ptr %4, align 4, !tbaa !16
  %5 = getelementptr inbounds nuw i8, ptr %3, i64 24
  store i32 0, ptr %5, align 8, !tbaa !17
  store i32 0, ptr %3, align 8, !tbaa !18
  %6 = getelementptr inbounds nuw i8, ptr %3, i64 8
  store ptr %0, ptr %6, align 8, !tbaa !4
  %7 = call i32 @ff_subtitles_read_text_chunk(ptr noundef nonnull %3, ptr noundef %1)
  call void @llvm.lifetime.end.p0(i64 312, ptr nonnull %3) #11
  ret i32 %7
}